target datalayout = "e-m:e-p270:32:32-p271:32:32-p272:64:64-i64:64-i128:128-f80:128-n8:16:32:64-S128"
target triple = "x86_64-unknown-linux-gnu"

@.str.4 = private unnamed_addr constant [26 x i8] c"drivers/gpu/drm/drm_gem.c\00", align 1

; Function Attrs: fn_ret_thunk_extern nounwind null_pointer_is_valid
define internal fastcc noundef i32 @objects_lookup(ptr noundef %0, ptr nocapture noundef readonly %1, i32 noundef %2, ptr nocapture noundef writeonly %3) unnamed_addr #0 align 16 {
  %5 = getelementptr inbounds i8, ptr %0, i64 104
  tail call void @_raw_spin_lock(ptr noundef %5) #11
  %6 = getelementptr inbounds i8, ptr %0, i64 80
  %7 = icmp sgt i32 %2, 0
  br i1 %7, label %8, label %30

8:                                                ; preds = %4
  %9 = zext nneg i32 %2 to i64
  br label %10

10:                                               ; preds = %26, %8
  %11 = phi i64 [ 0, %8 ], [ %28, %26 ]
  %12 = getelementptr i32, ptr %1, i64 %11
  %13 = load i32, ptr %12, align 4
  %14 = zext i32 %13 to i64
  %15 = tail call ptr @idr_find(ptr noundef %6, i64 noundef %14) #11
  %16 = icmp eq ptr %15, null
  br i1 %16, label %30, label %17

17:                                               ; preds = %10
  %18 = tail call i32 asm sideeffect ".pushsection .smp_locks,\22a\22\0A.balign 4\0A.long 671f - .\0A.popsection\0A671:\0A\09lock; xaddl $0, $1\0A", "=r,=*m,0,*m,~{memory},~{cc},~{dirflag},~{fpsr},~{flags}"(ptr nonnull elementtype(i32) %15, i32 1, ptr nonnull elementtype(i32) %15) #11, !srcloc !22
  %19 = icmp eq i32 %18, 0
  br i1 %19, label %24, label %20, !prof !15

20:                                               ; preds = %17
  %21 = add i32 %18, 1
  %22 = or i32 %21, %18
  %23 = icmp sgt i32 %22, -1
  br i1 %23, label %26, label %24, !prof !6

24:                                               ; preds = %20, %17
  %25 = phi i32 [ 2, %17 ], [ 1, %20 ]
  tail call void @refcount_warn_saturate(ptr noundef nonnull %15, i32 noundef %25) #11
  br label %26

26:                                               ; preds = %24, %20
  %27 = getelementptr ptr, ptr %3, i64 %11
  store ptr %15, ptr %27, align 8
  %28 = add nuw nsw i64 %11, 1
  %29 = icmp eq i64 %28, %9
  br i1 %29, label %30, label %10, !llvm.loop !54

30:                                               ; preds = %26, %10, %4
  %31 = phi i32 [ 0, %4 ], [ 0, %26 ], [ -2, %10 ]
  tail call void @_raw_spin_unlock(ptr noundef %5) #11
  ret i32 %31
}

; Function Attrs: fn_ret_thunk_extern nounwind null_pointer_is_valid
define dso_local i32 @drm_gem_flink_ioctl(ptr noundef %0, ptr nocapture noundef %1, ptr noundef %2) local_unnamed_addr #0 align 16 {
  %4 = alloca i32, align 4
  %5 = alloca ptr, align 8
  %6 = getelementptr inbounds i8, ptr %0, i64 48
  %7 = load ptr, ptr %6, align 8
  %8 = getelementptr inbounds i8, ptr %7, i64 176
  %9 = load i32, ptr %8, align 8
  %10 = getelementptr inbounds i8, ptr %0, i64 104
  %11 = load i32, ptr %10, align 8
  %12 = and i32 %9, 1
  %13 = and i32 %12, %11
  %14 = icmp eq i32 %13, 0
  br i1 %14, label %53, label %15

15:                                               ; preds = %3
  %16 = load i32, ptr %1, align 4
  call void @llvm.lifetime.start.p0(i64 4, ptr nonnull %4)
  store i32 %16, ptr %4, align 4
  call void @llvm.lifetime.start.p0(i64 8, ptr nonnull %5) #11
  store ptr null, ptr %5, align 8
  %17 = call fastcc i32 @objects_lookup(ptr noundef %2, ptr noundef nonnull %4, i32 noundef 1, ptr noundef nonnull %5), !range !12
  %18 = load ptr, ptr %5, align 8
  call void @llvm.lifetime.end.p0(i64 8, ptr nonnull %5) #11
  call void @llvm.lifetime.end.p0(i64 4, ptr nonnull %4)
  %19 = icmp eq ptr %18, null
  br i1 %19, label %53, label %20

20:                                               ; preds = %15
  %21 = getelementptr inbounds i8, ptr %0, i64 1456
  tail call void @mutex_lock(ptr noundef %21) #11
  %22 = getelementptr inbounds i8, ptr %18, i64 4
  %23 = load i32, ptr %22, align 4
  %24 = icmp eq i32 %23, 0
  br i1 %24, label %37, label %25

25:                                               ; preds = %20
  %26 = getelementptr inbounds i8, ptr %18, i64 224
  %27 = load i32, ptr %26, align 8
  %28 = icmp eq i32 %27, 0
  br i1 %28, label %29, label %34

29:                                               ; preds = %25
  %30 = getelementptr inbounds i8, ptr %0, i64 1488
  %31 = tail call i32 @idr_alloc(ptr noundef %30, ptr noundef nonnull %18, i32 noundef 1, i32 noundef 0, i32 noundef 3264) #11
  %32 = icmp slt i32 %31, 0
  br i1 %32, label %37, label %33

33:                                               ; preds = %29
  store i32 %31, ptr %26, align 8
  br label %34

34:                                               ; preds = %33, %25
  %35 = load i32, ptr %26, align 8
  %36 = getelementptr inbounds i8, ptr %1, i64 4
  store i32 %35, ptr %36, align 4
  br label %37

37:                                               ; preds = %34, %29, %20
  %38 = phi i32 [ 0, %34 ], [ %31, %29 ], [ -2, %20 ]
  tail call void @mutex_unlock(ptr noundef %21) #11
  %39 = tail call i32 asm sideeffect ".pushsection .smp_locks,\22a\22\0A.balign 4\0A.long 671f - .\0A.popsection\0A671:\0A\09lock; xaddl $0, $1\0A", "=r,=*m,0,*m,~{memory},~{cc},~{dirflag},~{fpsr},~{flags}"(ptr nonnull elementtype(i32) %18, i32 -1, ptr nonnull elementtype(i32) %18) #11, !srcloc !13
  %40 = icmp eq i32 %39, 1
  br i1 %40, label %41, label %42

41:                                               ; preds = %37
  tail call void asm sideeffect "", "~{memory},~{dirflag},~{fpsr},~{flags}"() #11, !srcloc !14
  br label %45

42:                                               ; preds = %37
  %43 = icmp sgt i32 %39, 0
  br i1 %43, label %45, label %44, !prof !6

44:                                               ; preds = %42
  tail call void @refcount_warn_saturate(ptr noundef nonnull %18, i32 noundef 3) #11
  br label %45

45:                                               ; preds = %44, %42, %41
  br i1 %40, label %46, label %53

46:                                               ; preds = %45
  %47 = getelementptr inbounds i8, ptr %18, i64 320
  %48 = load ptr, ptr %47, align 8
  %49 = load ptr, ptr %48, align 8
  %50 = icmp eq ptr %49, null
  br i1 %50, label %51, label %52, !prof !15

51:                                               ; preds = %46
  tail call void asm sideeffect "493: nop\0A\09.pushsection .discard.instr_begin\0A\09.long 493b - .\0A\09.popsection\0A\09", "i,~{dirflag},~{fpsr},~{flags}"(i32 493) #11, !srcloc !16
  tail call void asm sideeffect "1:\09.byte 0x0f, 0x0b\0A.pushsection __bug_table,\22aw\22\0A2:\09.long 1b - .\09# bug_entry::bug_addr\0A\09.long ${0:c} - .\09# bug_entry::file\0A\09.word ${1:c}\09# bug_entry::line\0A\09.word ${2:c}\09# bug_entry::flags\0A\09.org 2b+${3:c}\0A.popsection\0A998:\0A\09.pushsection .discard.reachable\0A\09.long 998b\0A\09.popsection\0A\09", "i,i,i,i,~{dirflag},~{fpsr},~{flags}"(ptr nonnull @.str.4, i32 979, i32 2305, i64 12) #11, !srcloc !17
  tail call void asm sideeffect "494: nop\0A\09.pushsection .discard.instr_end\0A\09.long 494b - .\0A\09.popsection\0A\09", "i,~{dirflag},~{fpsr},~{flags}"(i32 494) #11, !srcloc !18
  br label %53

52:                                               ; preds = %46
  tail call void %49(ptr noundef nonnull %18) #11
  br label %53

53:                                               ; preds = %52, %51, %45, %15, %3
  %54 = phi i32 [ -95, %3 ], [ -2, %15 ], [ %38, %45 ], [ %38, %51 ], [ %38, %52 ]
  ret i32 %54
}