; Function Attrs: fn_ret_thunk_extern nounwind null_pointer_is_valid
define dso_local i32 @drm_gem_flink_ioctl(ptr noundef %0, ptr nocapture noundef %1, ptr noundef %2) local_unnamed_addr #0 align 16 {
  %4 = getelementptr inbounds i8, ptr %0, i64 48
  %5 = load ptr, ptr %4, align 8
  %6 = getelementptr inbounds i8, ptr %5, i64 176
  %7 = load i32, ptr %6, align 8
  %8 = getelementptr inbounds i8, ptr %0, i64 104
  %9 = load i32, ptr %8, align 8
  %10 = and i32 %7, 1
  %11 = and i32 %10, %9
  %12 = icmp eq i32 %11, 0
  br i1 %12, label %.thread, label %13

13:                                               ; preds = %3
  %14 = load i32, ptr %1, align 4
  %15 = getelementptr inbounds i8, ptr %2, i64 104
  tail call void @_raw_spin_lock(ptr noundef %15) #11
  %16 = getelementptr inbounds i8, ptr %2, i64 80
  %17 = zext i32 %14 to i64
  %18 = tail call ptr @idr_find(ptr noundef %16, i64 noundef %17) #11
  %19 = icmp eq ptr %18, null
  br i1 %19, label %objects_lookup.exit, label %.lr.ph.preheader

.lr.ph.preheader:                                 ; preds = %13
  %20 = tail call i32 asm sideeffect ".pushsection .smp_locks,\22a\22\0A.balign 4\0A.long 671f - .\0A.popsection\0A671:\0A\09lock; xaddl $0, $1\0A", "=r,=*m,0,*m,~{memory},~{cc},~{dirflag},~{fpsr},~{flags}"(ptr nonnull elementtype(i32) %18, i32 1, ptr nonnull elementtype(i32) %18) #11, !srcloc !12
  %21 = icmp eq i32 %20, 0
  br i1 %21, label %26, label %22, !prof !13

22:                                               ; preds = %.lr.ph.preheader
  %23 = add i32 %20, 1
  %24 = or i32 %23, %20
  %25 = icmp sgt i32 %24, -1
  br i1 %25, label %28, label %26, !prof !6

26:                                               ; preds = %22, %.lr.ph.preheader
  %27 = phi i32 [ 2, %.lr.ph.preheader ], [ 1, %22 ]
  tail call void @refcount_warn_saturate(ptr noundef nonnull %18, i32 noundef %27) #11
  br label %28

objects_lookup.exit:                              ; preds = %13
  tail call void @_raw_spin_unlock(ptr noundef %15) #11
  br label %.thread

28:                                               ; preds = %22, %26
  tail call void @_raw_spin_unlock(ptr noundef %15) #11
  %29 = getelementptr inbounds i8, ptr %0, i64 1456
  tail call void @mutex_lock(ptr noundef %29) #11
  %30 = getelementptr inbounds i8, ptr %18, i64 4
  %31 = load i32, ptr %30, align 4
  %32 = icmp eq i32 %31, 0
  br i1 %32, label %45, label %33

33:                                               ; preds = %28
  %34 = getelementptr inbounds i8, ptr %18, i64 224
  %35 = load i32, ptr %34, align 8
  %36 = icmp eq i32 %35, 0
  br i1 %36, label %37, label %42

37:                                               ; preds = %33
  %38 = getelementptr inbounds i8, ptr %0, i64 1488
  %39 = tail call i32 @idr_alloc(ptr noundef %38, ptr noundef nonnull %18, i32 noundef 1, i32 noundef 0, i32 noundef 3264) #11
  %40 = icmp slt i32 %39, 0
  br i1 %40, label %45, label %41

41:                                               ; preds = %37
  store i32 %39, ptr %34, align 8
  br label %42

42:                                               ; preds = %41, %33
  %43 = phi i32 [ %39, %41 ], [ %35, %33 ]
  %44 = getelementptr inbounds i8, ptr %1, i64 4
  store i32 %43, ptr %44, align 4
  br label %45

45:                                               ; preds = %42, %37, %28
  %46 = phi i32 [ 0, %42 ], [ %39, %37 ], [ -2, %28 ]
  tail call void @mutex_unlock(ptr noundef %29) #11
  %47 = tail call i32 asm sideeffect ".pushsection .smp_locks,\22a\22\0A.balign 4\0A.long 671f - .\0A.popsection\0A671:\0A\09lock; xaddl $0, $1\0A", "=r,=*m,0,*m,~{memory},~{cc},~{dirflag},~{fpsr},~{flags}"(ptr nonnull elementtype(i32) %18, i32 -1, ptr nonnull elementtype(i32) %18) #11, !srcloc !14
  %48 = icmp eq i32 %47, 1
  br i1 %48, label %52, label %49

49:                                               ; preds = %45
  %50 = icmp sgt i32 %47, 0
  br i1 %50, label %.thread, label %51, !prof !6

51:                                               ; preds = %49
  tail call void @refcount_warn_saturate(ptr noundef nonnull %18, i32 noundef 3) #11
  br label %.thread

52:                                               ; preds = %45
  tail call void asm sideeffect "", "~{memory},~{dirflag},~{fpsr},~{flags}"() #11, !srcloc !15
  %53 = getelementptr inbounds i8, ptr %18, i64 320
  %54 = load ptr, ptr %53, align 8
  %55 = load ptr, ptr %54, align 8
  %56 = icmp eq ptr %55, null
  br i1 %56, label %57, label %58, !prof !13

57:                                               ; preds = %52
  tail call void asm sideeffect "493: nop\0A\09.pushsection .discard.instr_begin\0A\09.long 493b - .\0A\09.popsection\0A\09", "i,~{dirflag},~{fpsr},~{flags}"(i32 493) #11, !srcloc !16
  tail call void asm sideeffect "1:\09.byte 0x0f, 0x0b\0A.pushsection __bug_table,\22aw\22\0A2:\09.long 1b - .\09# bug_entry::bug_addr\0A\09.long ${0:c} - .\09# bug_entry::file\0A\09.word ${1:c}\09# bug_entry::line\0A\09.word ${2:c}\09# bug_entry::flags\0A\09.org 2b+${3:c}\0A.popsection\0A998:\0A\09.pushsection .discard.reachable\0A\09.long 998b\0A\09.popsection\0A\09", "i,i,i,i,~{dirflag},~{fpsr},~{flags}"(ptr nonnull @.str.4, i32 979, i32 2305, i64 12) #11, !srcloc !17
  tail call void asm sideeffect "494: nop\0A\09.pushsection .discard.instr_end\0A\09.long 494b - .\0A\09.popsection\0A\09", "i,~{dirflag},~{fpsr},~{flags}"(i32 494) #11, !srcloc !18
  br label %.thread

58:                                               ; preds = %52
  tail call void %55(ptr noundef nonnull %18) #11
  br label %.thread

.thread:                                          ; preds = %objects_lookup.exit, %49, %51, %58, %57, %3
  %59 = phi i32 [ -95, %3 ], [ -2, %objects_lookup.exit ], [ %46, %57 ], [ %46, %58 ], [ %46, %51 ], [ %46, %49 ]
  ret i32 %59
}